target datalayout = "e-m:e-p270:32:32-p271:32:32-p272:64:64-i64:64-i128:128-f80:128-n8:16:32:64-S128"
target triple = "x86_64-pc-linux-gnu"

%"class.glslang::TParseContextBase" = type { %"class.glslang::TParseVersions", ptr, ptr, %"class.glslang::TVector", i32, i32, i32, i32, i32, ptr, i8, i8, %"class.glslang::TList", %"class.glslang::TList.7", %"struct.glslang::TPragma", i32, i32, i8, i8, %"class.glslang::TVector.15", ptr, ptr, %struct.TBuiltInResource, ptr, %"class.std::__cxx11::basic_string", %"class.std::function", %"class.std::function.19", %"class.std::function.22", %"class.std::function.24", %"class.std::function.26", ptr, i32, i32, i32, %"class.glslang::TMap.29", i32, %"class.glslang::TMap.36" }
%"class.glslang::TParseVersions" = type { ptr, i8, i32, ptr, i32, i32, %"struct.glslang::SpvVersion", ptr, %"class.glslang::TMap", %"class.glslang::TMap.1", %"class.glslang::TVector", i32, i32, ptr }
%"struct.glslang::SpvVersion" = type <{ i32, i32, i32, i32, i8, [3 x i8] }>
%"class.glslang::TMap" = type { %"class.std::map" }
%"class.std::map" = type { %"class.std::_Rb_tree" }
%"class.std::_Rb_tree" = type { %"struct.std::_Rb_tree<std::__cxx11::basic_string<char, std::char_traits<char>, glslang::pool_allocator<char>>, std::pair<const std::__cxx11::basic_string<char, std::char_traits<char>, glslang::pool_allocator<char>>, glslang::TExtensionBehavior>, std::_Select1st<std::pair<const std::__cxx11::basic_string<char, std::char_traits<char>, glslang::pool_allocator<char>>, glslang::TExtensionBehavior>>, std::less<std::__cxx11::basic_string<char, std::char_traits<char>, glslang::pool_allocator<char>>>, glslang::pool_allocator<std::pair<const std::__cxx11::basic_string<char, std::char_traits<char>, glslang::pool_allocator<char>>, glslang::TExtensionBehavior>>>::_Rb_tree_impl" }
%"struct.std::_Rb_tree<std::__cxx11::basic_string<char, std::char_traits<char>, glslang::pool_allocator<char>>, std::pair<const std::__cxx11::basic_string<char, std::char_traits<char>, glslang::pool_allocator<char>>, glslang::TExtensionBehavior>, std::_Select1st<std::pair<const std::__cxx11::basic_string<char, std::char_traits<char>, glslang::pool_allocator<char>>, glslang::TExtensionBehavior>>, std::less<std::__cxx11::basic_string<char, std::char_traits<char>, glslang::pool_allocator<char>>>, glslang::pool_allocator<std::pair<const std::__cxx11::basic_string<char, std::char_traits<char>, glslang::pool_allocator<char>>, glslang::TExtensionBehavior>>>::_Rb_tree_impl" = type { %"class.glslang::pool_allocator.0", %"struct.std::_Rb_tree_key_compare", %"struct.std::_Rb_tree_header" }
%"class.glslang::pool_allocator.0" = type { ptr }
%"struct.std::_Rb_tree_key_compare" = type { %"struct.std::less" }
%"struct.std::less" = type { i8 }
%"struct.std::_Rb_tree_header" = type { %"struct.std::_Rb_tree_node_base", i64 }
%"struct.std::_Rb_tree_node_base" = type { i32, ptr, ptr, ptr }
%"class.glslang::TMap.1" = type { %"class.std::map.2" }
%"class.std::map.2" = type { %"class.std::_Rb_tree.3" }
%"class.std::_Rb_tree.3" = type { %"struct.std::_Rb_tree<std::__cxx11::basic_string<char, std::char_traits<char>, glslang::pool_allocator<char>>, std::pair<const std::__cxx11::basic_string<char, std::char_traits<char>, glslang::pool_allocator<char>>, unsigned int>, std::_Select1st<std::pair<const std::__cxx11::basic_string<char, std::char_traits<char>, glslang::pool_allocator<char>>, unsigned int>>, std::less<std::__cxx11::basic_string<char, std::char_traits<char>, glslang::pool_allocator<char>>>, glslang::pool_allocator<std::pair<const std::__cxx11::basic_string<char, std::char_traits<char>, glslang::pool_allocator<char>>, unsigned int>>>::_Rb_tree_impl" }
%"struct.std::_Rb_tree<std::__cxx11::basic_string<char, std::char_traits<char>, glslang::pool_allocator<char>>, std::pair<const std::__cxx11::basic_string<char, std::char_traits<char>, glslang::pool_allocator<char>>, unsigned int>, std::_Select1st<std::pair<const std::__cxx11::basic_string<char, std::char_traits<char>, glslang::pool_allocator<char>>, unsigned int>>, std::less<std::__cxx11::basic_string<char, std::char_traits<char>, glslang::pool_allocator<char>>>, glslang::pool_allocator<std::pair<const std::__cxx11::basic_string<char, std::char_traits<char>, glslang::pool_allocator<char>>, unsigned int>>>::_Rb_tree_impl" = type { %"class.glslang::pool_allocator.4", %"struct.std::_Rb_tree_key_compare", %"struct.std::_Rb_tree_header" }
%"class.glslang::pool_allocator.4" = type { ptr }
%"class.glslang::TList" = type { %"class.std::__cxx11::list" }
%"class.std::__cxx11::list" = type { %"class.std::__cxx11::_List_base" }
%"class.std::__cxx11::_List_base" = type { %"struct.std::__cxx11::_List_base<glslang::TVector<TIntermNode *> *, glslang::pool_allocator<glslang::TVector<TIntermNode *> *>>::_List_impl" }
%"struct.std::__cxx11::_List_base<glslang::TVector<TIntermNode *> *, glslang::pool_allocator<glslang::TVector<TIntermNode *> *>>::_List_impl" = type { %"class.glslang::pool_allocator.6", %"struct.std::__detail::_List_node_header" }
%"class.glslang::pool_allocator.6" = type { ptr }
%"struct.std::__detail::_List_node_header" = type { %"struct.std::__detail::_List_node_base", i64 }
%"struct.std::__detail::_List_node_base" = type { ptr, ptr }
%"class.glslang::TList.7" = type { %"class.std::__cxx11::list.8" }
%"class.std::__cxx11::list.8" = type { %"class.std::__cxx11::_List_base.9" }
%"class.std::__cxx11::_List_base.9" = type { %"struct.std::__cxx11::_List_base<int, glslang::pool_allocator<int>>::_List_impl" }
%"struct.std::__cxx11::_List_base<int, glslang::pool_allocator<int>>::_List_impl" = type { %"class.glslang::pool_allocator.10", %"struct.std::__detail::_List_node_header" }
%"class.glslang::pool_allocator.10" = type { ptr }
%"struct.glslang::TPragma" = type { i8, i8, %"class.glslang::TPragmaTable" }
%"class.glslang::TPragmaTable" = type { %"class.glslang::TMap.11" }
%"class.glslang::TMap.11" = type { %"class.std::map.12" }
%"class.std::map.12" = type { %"class.std::_Rb_tree.13" }
%"class.std::_Rb_tree.13" = type { %"struct.std::_Rb_tree<std::__cxx11::basic_string<char, std::char_traits<char>, glslang::pool_allocator<char>>, std::pair<const std::__cxx11::basic_string<char, std::char_traits<char>, glslang::pool_allocator<char>>, std::__cxx11::basic_string<char, std::char_traits<char>, glslang::pool_allocator<char>>>, std::_Select1st<std::pair<const std::__cxx11::basic_string<char, std::char_traits<char>, glslang::pool_allocator<char>>, std::__cxx11::basic_string<char, std::char_traits<char>, glslang::pool_allocator<char>>>>, std::less<std::__cxx11::basic_string<char, std::char_traits<char>, glslang::pool_allocator<char>>>, glslang::pool_allocator<std::pair<const std::__cxx11::basic_string<char, std::char_traits<char>, glslang::pool_allocator<char>>, std::__cxx11::basic_string<char, std::char_traits<char>, glslang::pool_allocator<char>>>>>::_Rb_tree_impl" }
%"struct.std::_Rb_tree<std::__cxx11::basic_string<char, std::char_traits<char>, glslang::pool_allocator<char>>, std::pair<const std::__cxx11::basic_string<char, std::char_traits<char>, glslang::pool_allocator<char>>, std::__cxx11::basic_string<char, std::char_traits<char>, glslang::pool_allocator<char>>>, std::_Select1st<std::pair<const std::__cxx11::basic_string<char, std::char_traits<char>, glslang::pool_allocator<char>>, std::__cxx11::basic_string<char, std::char_traits<char>, glslang::pool_allocator<char>>>>, std::less<std::__cxx11::basic_string<char, std::char_traits<char>, glslang::pool_allocator<char>>>, glslang::pool_allocator<std::pair<const std::__cxx11::basic_string<char, std::char_traits<char>, glslang::pool_allocator<char>>, std::__cxx11::basic_string<char, std::char_traits<char>, glslang::pool_allocator<char>>>>>::_Rb_tree_impl" = type { %"class.glslang::pool_allocator.14", %"struct.std::_Rb_tree_key_compare", %"struct.std::_Rb_tree_header" }
%"class.glslang::pool_allocator.14" = type { ptr }
%struct.TBuiltInResource = type { i32, i32, i32, i32, i32, i32, i32, i32, i32, i32, i32, i32, i32, i32, i32, i32, i32, i32, i32, i32, i32, i32, i32, i32, i32, i32, i32, i32, i32, i32, i32, i32, i32, i32, i32, i32, i32, i32, i32, i32, i32, i32, i32, i32, i32, i32, i32, i32, i32, i32, i32, i32, i32, i32, i32, i32, i32, i32, i32, i32, i32, i32, i32, i32, i32, i32, i32, i32, i32, i32, i32, i32, i32, i32, i32, i32, i32, i32, i32, i32, i32, i32, i32, i32, i32, i32, i32, i32, i32, i32, i32, i32, i32, i32, i32, i32, i32, i32, i32, i32, i32, i32, %struct.TLimits }
%struct.TLimits = type { i8, i8, i8, i8, i8, i8, i8, i8, i8 }
%"class.std::function" = type { %"class.std::_Function_base", ptr }
%"class.std::_Function_base" = type { %"union.std::_Any_data", ptr }
%"union.std::_Any_data" = type { %"union.std::_Nocopy_types" }
%"union.std::_Nocopy_types" = type { { i64, i64 } }
%"class.std::function.19" = type { %"class.std::_Function_base", ptr }
%"class.std::function.22" = type { %"class.std::_Function_base", ptr }
%"class.std::function.24" = type { %"class.std::_Function_base", ptr }
%"class.std::function.26" = type { %"class.std::_Function_base", ptr }
%"class.glslang::TMap.29" = type { %"class.std::map.30" }
%"class.std::map.30" = type { %"class.std::_Rb_tree.31" }
%"class.std::_Rb_tree.31" = type { %"struct.std::_Rb_tree<int, std::pair<const int, glslang::TVariable *>, std::_Select1st<std::pair<const int, glslang::TVariable *>>, std::less<int>, glslang::pool_allocator<std::pair<const int, glslang::TVariable *>>>::_Rb_tree_impl" }
%"struct.std::_Rb_tree<int, std::pair<const int, glslang::TVariable *>, std::_Select1st<std::pair<const int, glslang::TVariable *>>, std::less<int>, glslang::pool_allocator<std::pair<const int, glslang::TVariable *>>>::_Rb_tree_impl" = type { %"class.glslang::pool_allocator.32", %"struct.std::_Rb_tree_key_compare.33", %"struct.std::_Rb_tree_header" }
%"class.glslang::pool_allocator.32" = type { ptr }
%"struct.std::_Rb_tree_key_compare.33" = type { %"struct.std::less.34" }
%"struct.std::less.34" = type { i8 }
%"class.glslang::TMap.36" = type { %"class.std::map.37" }
%"class.std::map.37" = type { %"class.std::_Rb_tree.38" }
%"class.std::_Rb_tree.38" = type { %"struct.std::_Rb_tree<int, std::pair<const int, int>, std::_Select1st<std::pair<const int, int>>, std::less<int>, glslang::pool_allocator<std::pair<const int, int>>>::_Rb_tree_impl" }
%"struct.std::_Rb_tree<int, std::pair<const int, int>, std::_Select1st<std::pair<const int, int>>, std::less<int>, glslang::pool_allocator<std::pair<const int, int>>>::_Rb_tree_impl" = type { %"class.glslang::pool_allocator.39", %"struct.std::_Rb_tree_key_compare.33", %"struct.std::_Rb_tree_header" }
%"class.glslang::pool_allocator.39" = type { ptr }
%"class.glslang::TVector.15" = type { %"class.std::vector.16" }
%"class.std::vector.16" = type { %"struct.std::_Vector_base.17" }
%"struct.std::_Vector_base.17" = type { %"struct.std::_Vector_base<glslang::TSymbol *, glslang::pool_allocator<glslang::TSymbol *>>::_Vector_impl" }
%"struct.std::_Vector_base<glslang::TSymbol *, glslang::pool_allocator<glslang::TSymbol *>>::_Vector_impl" = type { %"class.glslang::pool_allocator.18", %"struct.std::_Vector_base<glslang::TSymbol *, glslang::pool_allocator<glslang::TSymbol *>>::_Vector_impl_data" }
%"class.glslang::pool_allocator.18" = type { ptr }
%"struct.std::_Vector_base<glslang::TSymbol *, glslang::pool_allocator<glslang::TSymbol *>>::_Vector_impl_data" = type { ptr, ptr, ptr }
%"class.std::__cxx11::basic_string" = type { %"struct.std::__cxx11::basic_string<char, std::char_traits<char>, glslang::pool_allocator<char>>::_Alloc_hider", i64, %union.anon }
%"struct.std::__cxx11::basic_string<char, std::char_traits<char>, glslang::pool_allocator<char>>::_Alloc_hider" = type { %"class.glslang::pool_allocator", ptr }
%"class.glslang::pool_allocator" = type { ptr }
%union.anon = type { i64, [8 x i8] }
%"class.glslang::TVector" = type { %"class.std::vector" }
%"class.std::vector" = type { %"struct.std::_Vector_base" }
%"struct.std::_Vector_base" = type { %"struct.std::_Vector_base<std::__cxx11::basic_string<char, std::char_traits<char>, glslang::pool_allocator<char>>, glslang::pool_allocator<std::__cxx11::basic_string<char, std::char_traits<char>, glslang::pool_allocator<char>>>>::_Vector_impl" }
%"struct.std::_Vector_base<std::__cxx11::basic_string<char, std::char_traits<char>, glslang::pool_allocator<char>>, glslang::pool_allocator<std::__cxx11::basic_string<char, std::char_traits<char>, glslang::pool_allocator<char>>>>::_Vector_impl" = type { %"class.glslang::pool_allocator.5", %"struct.std::_Vector_base<std::__cxx11::basic_string<char, std::char_traits<char>, glslang::pool_allocator<char>>, glslang::pool_allocator<std::__cxx11::basic_string<char, std::char_traits<char>, glslang::pool_allocator<char>>>>::_Vector_impl_data" }
%"class.glslang::pool_allocator.5" = type { ptr }
%"struct.std::_Vector_base<std::__cxx11::basic_string<char, std::char_traits<char>, glslang::pool_allocator<char>>, glslang::pool_allocator<std::__cxx11::basic_string<char, std::char_traits<char>, glslang::pool_allocator<char>>>>::_Vector_impl_data" = type { ptr, ptr, ptr }
%"class.glslang::TSymbolTable" = type { %"class.std::vector.105", i64, i8, i8, i32 }
%"class.std::vector.105" = type { %"struct.std::_Vector_base.106" }
%"struct.std::_Vector_base.106" = type { %"struct.std::_Vector_base<glslang::TSymbolTableLevel *, std::allocator<glslang::TSymbolTableLevel *>>::_Vector_impl" }
%"struct.std::_Vector_base<glslang::TSymbolTableLevel *, std::allocator<glslang::TSymbolTableLevel *>>::_Vector_impl" = type { %"struct.std::_Vector_base<glslang::TSymbolTableLevel *, std::allocator<glslang::TSymbolTableLevel *>>::_Vector_impl_data" }
%"struct.std::_Vector_base<glslang::TSymbolTableLevel *, std::allocator<glslang::TSymbolTableLevel *>>::_Vector_impl_data" = type { ptr, ptr, ptr }

@.str.5 = private unnamed_addr constant [1 x i8] zeroinitializer, align 1
@.str.208 = private unnamed_addr constant [28 x i8] c"not allowed in nested scope\00", align 1

; Function Attrs: mustprogress nounwind uwtable
define linkonce_odr noundef i64 @_ZNKSt6vectorIPN7glslang17TSymbolTableLevelESaIS2_EE4sizeEv(ptr noundef nonnull align 8 dereferenceable(24) %0) #0 comdat align 2 {
  %2 = alloca ptr, align 8
  store ptr %0, ptr %2, align 8
  %3 = load ptr, ptr %2, align 8
  %4 = getelementptr inbounds %"struct.std::_Vector_base.106", ptr %3, i32 0, i32 0
  %5 = getelementptr inbounds %"struct.std::_Vector_base<glslang::TSymbolTableLevel *, std::allocator<glslang::TSymbolTableLevel *>>::_Vector_impl_data", ptr %4, i32 0, i32 1
  %6 = load ptr, ptr %5, align 8
  %7 = getelementptr inbounds %"struct.std::_Vector_base.106", ptr %3, i32 0, i32 0
  %8 = getelementptr inbounds %"struct.std::_Vector_base<glslang::TSymbolTableLevel *, std::allocator<glslang::TSymbolTableLevel *>>::_Vector_impl_data", ptr %7, i32 0, i32 0
  %9 = load ptr, ptr %8, align 8
  %10 = ptrtoint ptr %6 to i64
  %11 = ptrtoint ptr %9 to i64
  %12 = sub i64 %10, %11
  %13 = sdiv exact i64 %12, 8
  ret i64 %13
}

; Function Attrs: mustprogress nounwind uwtable
define linkonce_odr noundef zeroext i1 @_ZN7glslang12TSymbolTable13isGlobalLevelEi(i32 noundef %0) #0 comdat align 2 {
  %2 = alloca i32, align 4
  store i32 %0, ptr %2, align 4
  %3 = load i32, ptr %2, align 4
  %4 = icmp sle i32 %3, 3
  ret i1 %4
}

; Function Attrs: mustprogress nounwind uwtable
define linkonce_odr noundef i32 @_ZNK7glslang12TSymbolTable12currentLevelEv(ptr noundef nonnull align 8 dereferenceable(40) %0) #0 comdat align 2 {
  %2 = alloca ptr, align 8
  store ptr %0, ptr %2, align 8
  %3 = load ptr, ptr %2, align 8
  %4 = getelementptr inbounds %"class.glslang::TSymbolTable", ptr %3, i32 0, i32 0
  %5 = call noundef i64 @_ZNKSt6vectorIPN7glslang17TSymbolTableLevelESaIS2_EE4sizeEv(ptr noundef nonnull align 8 dereferenceable(24) %4) #13
  %6 = trunc i64 %5 to i32
  %7 = sub nsw i32 %6, 1
  ret i32 %7
}

; Function Attrs: mustprogress nounwind uwtable
define linkonce_odr noundef zeroext i1 @_ZN7glslang12TSymbolTable13atGlobalLevelEv(ptr noundef nonnull align 8 dereferenceable(40) %0) #0 comdat align 2 {
  %2 = alloca ptr, align 8
  store ptr %0, ptr %2, align 8
  %3 = load ptr, ptr %2, align 8
  %4 = call noundef i32 @_ZNK7glslang12TSymbolTable12currentLevelEv(ptr noundef nonnull align 8 dereferenceable(40) %3)
  %5 = call noundef zeroext i1 @_ZN7glslang12TSymbolTable13isGlobalLevelEi(i32 noundef %4)
  ret i1 %5
}

; Function Attrs: mustprogress nounwind uwtable
define void @_ZN7glslang16HlslParseContext11globalCheckERKNS_10TSourceLocEPKc(ptr noundef nonnull align 8 dereferenceable(2489) %0, ptr noundef nonnull align 8 dereferenceable(24) %1, ptr noundef %2) #0 align 2 {
  %4 = alloca ptr, align 8
  %5 = alloca ptr, align 8
  %6 = alloca ptr, align 8
  store ptr %0, ptr %4, align 8
  store ptr %1, ptr %5, align 8
  store ptr %2, ptr %6, align 8
  %7 = load ptr, ptr %4, align 8
  %8 = getelementptr inbounds %"class.glslang::TParseContextBase", ptr %7, i32 0, i32 2
  %9 = load ptr, ptr %8, align 8
  %10 = call noundef zeroext i1 @_ZN7glslang12TSymbolTable13atGlobalLevelEv(ptr noundef nonnull align 8 dereferenceable(40) %9)
  br i1 %10, label %17, label %11

11:                                               ; preds = %3
  %12 = load ptr, ptr %5, align 8
  %13 = load ptr, ptr %6, align 8
  %14 = load ptr, ptr %7, align 8
  %15 = getelementptr inbounds ptr, ptr %14, i64 43
  %16 = load ptr, ptr %15, align 8
  call void (ptr, ptr, ptr, ptr, ptr, ...) %16(ptr noundef nonnull align 8 dereferenceable(1280) %7, ptr noundef nonnull align 8 dereferenceable(24) %12, ptr noundef @.str.208, ptr noundef %13, ptr noundef @.str.5)
  br label %17

17:                                               ; preds = %11, %3
  ret void
}