; Function Attrs: mustprogress nounwind uwtable
define void @_ZN7glslang16HlslParseContext11globalCheckERKNS_10TSourceLocEPKc(ptr noundef nonnull align 8 dereferenceable(2489) %0, ptr noundef nonnull align 8 dereferenceable(24) %1, ptr noundef %2) local_unnamed_addr #0 align 2 {
  %4 = getelementptr inbounds i8, ptr %0, i64 232
  %5 = load ptr, ptr %4, align 8
  %6 = getelementptr inbounds i8, ptr %5, i64 8
  %7 = load ptr, ptr %6, align 8
  %8 = load ptr, ptr %5, align 8
  %9 = ptrtoint ptr %7 to i64
  %10 = ptrtoint ptr %8 to i64
  %11 = sub i64 %9, %10
  %12 = lshr exact i64 %11, 3
  %13 = trunc i64 %12 to i32
  %14 = icmp slt i32 %13, 5
  br i1 %14, label %19, label %15

15:                                               ; preds = %3
  %16 = load ptr, ptr %0, align 8
  %17 = getelementptr inbounds i8, ptr %16, i64 344
  %18 = load ptr, ptr %17, align 8
  tail call void (ptr, ptr, ptr, ptr, ptr, ...) %18(ptr noundef nonnull align 8 dereferenceable(1280) %0, ptr noundef nonnull align 8 dereferenceable(24) %1, ptr noundef nonnull @.str.208, ptr noundef %2, ptr noundef nonnull @.str.5) #24
  br label %19

19:                                               ; preds = %15, %3
  ret void
}